target datalayout = "e-m:e-p270:32:32-p271:32:32-p272:64:64-i64:64-i128:128-f80:128-n8:16:32:64-S128"
target triple = "x86_64-pc-linux-gnu"

%struct._YR_COMPILER = type { i32, i32, i32, i32, i32, [1 x %struct.__jmp_buf_tag], ptr, ptr, ptr, ptr, ptr, ptr, ptr, ptr, ptr, ptr, ptr, ptr, ptr, ptr, i32, i32, [4 x ptr], [4 x ptr], i32, i32, i32, [16 x ptr], i32, [16 x ptr], i32, [256 x i8], [1024 x i8], ptr, i16, [1024 x i8], ptr, %struct.rq, %struct.cs, ptr, i32 }
%struct.__jmp_buf_tag = type { [8 x i64], i32, %struct.__sigset_t }
%struct.__sigset_t = type { [16 x i64] }
%struct.rq = type { ptr, ptr }
%struct.cs = type { ptr, ptr }
%struct._yc_string = type { %struct.anon, i32, i32, %union.anon, %union.anon.0, %union.anon.1, i32 }
%struct.anon = type { ptr }
%union.anon = type { ptr }
%union.anon.0 = type { ptr }
%union.anon.1 = type { ptr }
%struct._SIZED_STRING = type { i32, i32, [1 x i8] }

; Function Attrs: nounwind uwtable
define i32 @_yr_parser_write_string(ptr noundef %0, i32 noundef %1, ptr noundef %2, ptr noundef %3, ptr noundef %4, ptr noundef %5, ptr noundef %6) #0 {
  %8 = alloca i32, align 4
  %9 = alloca ptr, align 8
  %10 = alloca i32, align 4
  %11 = alloca ptr, align 8
  %12 = alloca ptr, align 8
  %13 = alloca ptr, align 8
  %14 = alloca ptr, align 8
  %15 = alloca ptr, align 8
  %16 = alloca ptr, align 8
  %17 = alloca i32, align 4
  %18 = alloca i32, align 4
  store ptr %0, ptr %9, align 8, !tbaa !27
  store i32 %1, ptr %10, align 4, !tbaa !26
  store ptr %2, ptr %11, align 8, !tbaa !28
  store ptr %3, ptr %12, align 8, !tbaa !44
  store ptr %4, ptr %13, align 8, !tbaa !46
  store ptr %5, ptr %14, align 8, !tbaa !48
  store ptr %6, ptr %15, align 8, !tbaa !49
  call void @llvm.lifetime.start.p0(i64 8, ptr %16) #5
  call void @llvm.lifetime.start.p0(i64 4, ptr %17) #5
  %19 = load ptr, ptr %14, align 8, !tbaa !48
  store ptr null, ptr %19, align 8, !tbaa !31
  %20 = load ptr, ptr %11, align 8, !tbaa !28
  %21 = getelementptr inbounds nuw %struct._YR_COMPILER, ptr %20, i32 0, i32 8
  %22 = load ptr, ptr %21, align 8, !tbaa !35
  %23 = load ptr, ptr %14, align 8, !tbaa !48
  %24 = call i32 (ptr, i64, ptr, ...) @yr_arena_allocate_struct(ptr noundef %22, i64 noundef 48, ptr noundef %23, i64 noundef 16, i64 noundef 24, i64 noundef 32, i64 noundef -1)
  store i32 %24, ptr %17, align 4, !tbaa !26
  %25 = load i32, ptr %17, align 4, !tbaa !26
  %26 = icmp ne i32 %25, 0
  br i1 %26, label %27, label %29

27:                                               ; preds = %7
  %28 = load i32, ptr %17, align 4, !tbaa !26
  store i32 %28, ptr %8, align 4
  store i32 1, ptr %18, align 4
  br label %72

29:                                               ; preds = %7
  %30 = load ptr, ptr %11, align 8, !tbaa !28
  %31 = getelementptr inbounds nuw %struct._YR_COMPILER, ptr %30, i32 0, i32 6
  %32 = load ptr, ptr %31, align 8, !tbaa !51
  %33 = load ptr, ptr %9, align 8, !tbaa !27
  %34 = load ptr, ptr %14, align 8, !tbaa !48
  %35 = load ptr, ptr %34, align 8, !tbaa !31
  %36 = getelementptr inbounds nuw %struct._yc_string, ptr %35, i32 0, i32 3
  %37 = call i32 @yr_arena_write_string(ptr noundef %32, ptr noundef %33, ptr noundef %36)
  store i32 %37, ptr %17, align 4, !tbaa !26
  %38 = load i32, ptr %17, align 4, !tbaa !26
  %39 = icmp ne i32 %38, 0
  br i1 %39, label %40, label %42

40:                                               ; preds = %29
  %41 = load i32, ptr %17, align 4, !tbaa !26
  store i32 %41, ptr %8, align 4
  store i32 1, ptr %18, align 4
  br label %72

42:                                               ; preds = %29
  %43 = load ptr, ptr %12, align 8, !tbaa !44
  store ptr %43, ptr %16, align 8, !tbaa !44
  %44 = load i32, ptr %10, align 4, !tbaa !26
  %45 = load ptr, ptr %14, align 8, !tbaa !48
  %46 = load ptr, ptr %45, align 8, !tbaa !31
  %47 = getelementptr inbounds nuw %struct._yc_string, ptr %46, i32 0, i32 1
  store i32 %44, ptr %47, align 8, !tbaa !32
  %48 = load ptr, ptr %14, align 8, !tbaa !48
  %49 = load ptr, ptr %48, align 8, !tbaa !31
  %50 = getelementptr inbounds nuw %struct._yc_string, ptr %49, i32 0, i32 5
  store ptr null, ptr %50, align 8, !tbaa !7
  %51 = load ptr, ptr %16, align 8, !tbaa !44
  %52 = getelementptr inbounds nuw %struct._SIZED_STRING, ptr %51, i32 0, i32 0
  %53 = load i32, ptr %52, align 4, !tbaa !52
  %54 = load ptr, ptr %14, align 8, !tbaa !48
  %55 = load ptr, ptr %54, align 8, !tbaa !31
  %56 = getelementptr inbounds nuw %struct._yc_string, ptr %55, i32 0, i32 2
  store i32 %53, ptr %56, align 4, !tbaa !54
  %57 = load ptr, ptr %11, align 8, !tbaa !28
  %58 = getelementptr inbounds nuw %struct._YR_COMPILER, ptr %57, i32 0, i32 6
  %59 = load ptr, ptr %58, align 8, !tbaa !51
  %60 = load ptr, ptr %16, align 8, !tbaa !44
  %61 = getelementptr inbounds nuw %struct._SIZED_STRING, ptr %60, i32 0, i32 2
  %62 = getelementptr inbounds [1 x i8], ptr %61, i64 0, i64 0
  %63 = load ptr, ptr %16, align 8, !tbaa !44
  %64 = getelementptr inbounds nuw %struct._SIZED_STRING, ptr %63, i32 0, i32 0
  %65 = load i32, ptr %64, align 4, !tbaa !52
  %66 = sext i32 %65 to i64
  %67 = load ptr, ptr %14, align 8, !tbaa !48
  %68 = load ptr, ptr %67, align 8, !tbaa !31
  %69 = getelementptr inbounds nuw %struct._yc_string, ptr %68, i32 0, i32 4
  %70 = call i32 @yr_arena_write_data(ptr noundef %59, ptr noundef %62, i64 noundef %66, ptr noundef %69)
  store i32 %70, ptr %17, align 4, !tbaa !26
  %71 = load i32, ptr %17, align 4, !tbaa !26
  store i32 %71, ptr %8, align 4
  store i32 1, ptr %18, align 4
  br label %72

72:                                               ; preds = %42, %40, %27
  call void @llvm.lifetime.end.p0(i64 4, ptr %17) #5
  call void @llvm.lifetime.end.p0(i64 8, ptr %16) #5
  %73 = load i32, ptr %8, align 4
  ret i32 %73
}