; Function Attrs: nounwind uwtable
define i32 @_yr_parser_write_string(ptr noundef %0, i32 noundef %1, ptr noundef readonly captures(none) %2, ptr noundef %3, ptr noundef readnone captures(none) %4, ptr noundef initializes((0, 8)) %5, ptr noundef readnone captures(none) %6) local_unnamed_addr #0 {
  store ptr null, ptr %5, align 8, !tbaa !36
  %8 = getelementptr inbounds nuw i8, ptr %2, i64 240
  %9 = load ptr, ptr %8, align 8, !tbaa !28
  %10 = tail call i32 (ptr, i64, ptr, ...) @yr_arena_allocate_struct(ptr noundef %9, i64 noundef 48, ptr noundef nonnull %5, i64 noundef 16, i64 noundef 24, i64 noundef 32, i64 noundef -1) #6
  %.not = icmp eq i32 %10, 0
  br i1 %.not, label %11, label %29

11:                                               ; preds = %7
  %12 = getelementptr inbounds nuw i8, ptr %2, i64 224
  %13 = load ptr, ptr %12, align 8, !tbaa !37
  %14 = load ptr, ptr %5, align 8, !tbaa !36
  %15 = getelementptr inbounds nuw i8, ptr %14, i64 16
  %16 = tail call i32 @yr_arena_write_string(ptr noundef %13, ptr noundef %0, ptr noundef nonnull %15) #6
  %.not23 = icmp eq i32 %16, 0
  br i1 %.not23, label %17, label %29

17:                                               ; preds = %11
  %18 = load ptr, ptr %5, align 8, !tbaa !36
  %19 = getelementptr inbounds nuw i8, ptr %18, i64 8
  store i32 %1, ptr %19, align 8, !tbaa !25
  %20 = getelementptr inbounds nuw i8, ptr %18, i64 32
  store ptr null, ptr %20, align 8, !tbaa !3
  %21 = load i32, ptr %3, align 4, !tbaa !38
  %22 = load ptr, ptr %5, align 8, !tbaa !36
  %23 = getelementptr inbounds nuw i8, ptr %22, i64 12
  store i32 %21, ptr %23, align 4, !tbaa !40
  %24 = load ptr, ptr %12, align 8, !tbaa !37
  %25 = getelementptr inbounds nuw i8, ptr %3, i64 8
  %26 = sext i32 %21 to i64
  %27 = getelementptr inbounds nuw i8, ptr %22, i64 24
  %28 = tail call i32 @yr_arena_write_data(ptr noundef %24, ptr noundef nonnull %25, i64 noundef %26, ptr noundef nonnull %27) #6
  br label %29

29:                                               ; preds = %11, %7, %17
  %.0 = phi i32 [ %28, %17 ], [ %10, %7 ], [ %16, %11 ]
  ret i32 %.0
}